target datalayout = "e-m:e-p270:32:32-p271:32:32-p272:64:64-i64:64-i128:128-f80:128-n8:16:32:64-S128"
target triple = "x86_64-pc-linux-gnu"

%struct.Qureg = type { i32, i32, i32, i64, i64, i32, i32, %struct.ComplexArray, %struct.ComplexArray, %struct.ComplexArray, ptr, ptr, ptr, ptr, ptr, ptr }
%struct.ComplexArray = type { ptr, ptr }
%struct.QASMLogger = type { ptr, i32, i32, i32 }

@__func__.qasm_setup = private unnamed_addr constant [11 x i8] c"qasm_setup\00", align 1
@.str = private unnamed_addr constant [41 x i8] c"OPENQASM 2.0;\0Aqreg %s[%d];\0Acreg %s[%d];\0A\00", align 1
@.str.1 = private unnamed_addr constant [2 x i8] c"q\00", align 1
@.str.2 = private unnamed_addr constant [2 x i8] c"c\00", align 1

; Function Attrs: nounwind uwtable
define void @qasm_setup(ptr noundef %0) #0 {
  %2 = alloca ptr, align 8
  %3 = alloca ptr, align 8
  store ptr %0, ptr %2, align 8, !tbaa !4
  call void @llvm.lifetime.start.p0(i64 8, ptr %3) #7
  %4 = call noalias ptr @malloc(i64 noundef 24) #8
  store ptr %4, ptr %3, align 8, !tbaa !9
  %5 = load ptr, ptr %3, align 8, !tbaa !9
  %6 = load ptr, ptr %2, align 8, !tbaa !4
  %7 = getelementptr inbounds nuw %struct.Qureg, ptr %6, i32 0, i32 15
  store ptr %5, ptr %7, align 8, !tbaa !10
  %8 = load ptr, ptr %3, align 8, !tbaa !9
  %9 = icmp eq ptr %8, null
  br i1 %9, label %10, label %11

10:                                               ; preds = %1
  call void @raiseQASMBufferOverflow(ptr noundef @__func__.qasm_setup)
  br label %11

11:                                               ; preds = %10, %1
  %12 = load ptr, ptr %3, align 8, !tbaa !9
  %13 = getelementptr inbounds nuw %struct.QASMLogger, ptr %12, i32 0, i32 3
  store i32 0, ptr %13, align 8, !tbaa !17
  %14 = load ptr, ptr %3, align 8, !tbaa !9
  %15 = getelementptr inbounds nuw %struct.QASMLogger, ptr %14, i32 0, i32 1
  store i32 1024, ptr %15, align 8, !tbaa !20
  %16 = load ptr, ptr %3, align 8, !tbaa !9
  %17 = getelementptr inbounds nuw %struct.QASMLogger, ptr %16, i32 0, i32 1
  %18 = load i32, ptr %17, align 8, !tbaa !20
  %19 = sext i32 %18 to i64
  %20 = mul i64 %19, 1
  %21 = call noalias ptr @malloc(i64 noundef %20) #8
  %22 = load ptr, ptr %3, align 8, !tbaa !9
  %23 = getelementptr inbounds nuw %struct.QASMLogger, ptr %22, i32 0, i32 0
  store ptr %21, ptr %23, align 8, !tbaa !21
  %24 = load ptr, ptr %3, align 8, !tbaa !9
  %25 = getelementptr inbounds nuw %struct.QASMLogger, ptr %24, i32 0, i32 0
  %26 = load ptr, ptr %25, align 8, !tbaa !21
  %27 = icmp eq ptr %26, null
  br i1 %27, label %28, label %29

28:                                               ; preds = %11
  call void @raiseQASMBufferOverflow(ptr noundef @__func__.qasm_setup)
  br label %29

29:                                               ; preds = %28, %11
  %30 = load ptr, ptr %3, align 8, !tbaa !9
  %31 = getelementptr inbounds nuw %struct.QASMLogger, ptr %30, i32 0, i32 0
  %32 = load ptr, ptr %31, align 8, !tbaa !21
  %33 = load ptr, ptr %3, align 8, !tbaa !9
  %34 = getelementptr inbounds nuw %struct.QASMLogger, ptr %33, i32 0, i32 1
  %35 = load i32, ptr %34, align 8, !tbaa !20
  %36 = sext i32 %35 to i64
  %37 = load ptr, ptr %2, align 8, !tbaa !4
  %38 = getelementptr inbounds nuw %struct.Qureg, ptr %37, i32 0, i32 1
  %39 = load i32, ptr %38, align 4, !tbaa !22
  %40 = load ptr, ptr %2, align 8, !tbaa !4
  %41 = getelementptr inbounds nuw %struct.Qureg, ptr %40, i32 0, i32 1
  %42 = load i32, ptr %41, align 4, !tbaa !22
  %43 = call i32 (ptr, i64, ptr, ...) @snprintf(ptr noundef %32, i64 noundef %36, ptr noundef @.str, ptr noundef @.str.1, i32 noundef %39, ptr noundef @.str.2, i32 noundef %42) #7
  %44 = load ptr, ptr %3, align 8, !tbaa !9
  %45 = getelementptr inbounds nuw %struct.QASMLogger, ptr %44, i32 0, i32 2
  store i32 %43, ptr %45, align 4, !tbaa !23
  %46 = load ptr, ptr %3, align 8, !tbaa !9
  %47 = getelementptr inbounds nuw %struct.QASMLogger, ptr %46, i32 0, i32 2
  %48 = load i32, ptr %47, align 4, !tbaa !23
  %49 = load ptr, ptr %3, align 8, !tbaa !9
  %50 = getelementptr inbounds nuw %struct.QASMLogger, ptr %49, i32 0, i32 1
  %51 = load i32, ptr %50, align 8, !tbaa !20
  %52 = icmp sge i32 %48, %51
  br i1 %52, label %53, label %54

53:                                               ; preds = %29
  call void @raiseQASMBufferOverflow(ptr noundef @__func__.qasm_setup)
  br label %54

54:                                               ; preds = %53, %29
  call void @llvm.lifetime.end.p0(i64 8, ptr %3) #7
  ret void
}