; Function Attrs: nounwind uwtable
define void @qasm_setup(ptr noundef captures(none) initializes((128, 136)) %0) local_unnamed_addr #0 {
  %2 = tail call noalias dereferenceable_or_null(24) ptr @malloc(i64 noundef 24) #15
  %3 = getelementptr inbounds nuw i8, ptr %0, i64 128
  store ptr %2, ptr %3, align 8, !tbaa !4
  %4 = icmp eq ptr %2, null
  br i1 %4, label %5, label %6

5:                                                ; preds = %1
  tail call void @raiseQASMBufferOverflow(ptr noundef nonnull @__func__.qasm_setup) #16
  br label %6

6:                                                ; preds = %5, %1
  %7 = getelementptr inbounds nuw i8, ptr %2, i64 16
  store i32 0, ptr %7, align 8, !tbaa !14
  %8 = getelementptr inbounds nuw i8, ptr %2, i64 8
  store i32 1024, ptr %8, align 8, !tbaa !17
  %9 = tail call noalias dereferenceable_or_null(1024) ptr @malloc(i64 noundef 1024) #15
  store ptr %9, ptr %2, align 8, !tbaa !18
  %10 = icmp eq ptr %9, null
  br i1 %10, label %11, label %13

11:                                               ; preds = %6
  tail call void @raiseQASMBufferOverflow(ptr noundef nonnull @__func__.qasm_setup) #16
  %.pre = load ptr, ptr %2, align 8, !tbaa !18
  %.pre15 = load i32, ptr %8, align 8, !tbaa !17
  %12 = sext i32 %.pre15 to i64
  br label %13

13:                                               ; preds = %11, %6
  %14 = phi i64 [ %12, %11 ], [ 1024, %6 ]
  %15 = phi ptr [ %.pre, %11 ], [ %9, %6 ]
  %16 = getelementptr inbounds nuw i8, ptr %0, i64 4
  %17 = load i32, ptr %16, align 4, !tbaa !19
  %18 = tail call i32 (ptr, i64, ptr, ...) @snprintf(ptr noundef %15, i64 noundef %14, ptr noundef nonnull @.str, ptr noundef nonnull @.str.1, i32 noundef %17, ptr noundef nonnull @.str.2, i32 noundef %17) #16
  %19 = getelementptr inbounds nuw i8, ptr %2, i64 12
  store i32 %18, ptr %19, align 4, !tbaa !20
  %20 = load i32, ptr %8, align 8, !tbaa !17
  %.not = icmp slt i32 %18, %20
  br i1 %.not, label %22, label %21

21:                                               ; preds = %13
  tail call void @raiseQASMBufferOverflow(ptr noundef nonnull @__func__.qasm_setup) #16
  br label %22

22:                                               ; preds = %21, %13
  ret void
}